target datalayout = "e-m:e-p270:32:32-p271:32:32-p272:64:64-i64:64-i128:128-f80:128-n8:16:32:64-S128"
target triple = "x86_64-pc-linux-gnu"

%struct.cdf_directory_t = type { [32 x i16], i16, i8, i8, i32, i32, i32, [2 x i64], i32, i64, i64, i32, i32, i32 }

; Function Attrs: nounwind uwtable
define hidden void @cdf_unpack_dir(ptr noundef %0, ptr noundef %1) #0 {
  %3 = alloca ptr, align 8
  %4 = alloca ptr, align 8
  %5 = alloca i64, align 8
  store ptr %0, ptr %3, align 8, !tbaa !16
  store ptr %1, ptr %4, align 8, !tbaa !9
  call void @llvm.lifetime.start.p0(i64 8, ptr %5) #13
  store i64 0, ptr %5, align 8, !tbaa !14
  %6 = load ptr, ptr %3, align 8, !tbaa !16
  %7 = getelementptr inbounds nuw %struct.cdf_directory_t, ptr %6, i32 0, i32 0
  %8 = getelementptr inbounds [32 x i16], ptr %7, i64 0, i64 0
  %9 = load ptr, ptr %4, align 8, !tbaa !9
  %10 = load i64, ptr %5, align 8, !tbaa !14
  %11 = getelementptr inbounds nuw i8, ptr %9, i64 %10
  call void @llvm.memcpy.p0.p0.i64(ptr align 8 %8, ptr align 1 %11, i64 64, i1 false)
  %12 = load i64, ptr %5, align 8, !tbaa !14
  %13 = add i64 %12, 64
  store i64 %13, ptr %5, align 8, !tbaa !14
  %14 = load ptr, ptr %3, align 8, !tbaa !16
  %15 = getelementptr inbounds nuw %struct.cdf_directory_t, ptr %14, i32 0, i32 1
  %16 = load ptr, ptr %4, align 8, !tbaa !9
  %17 = load i64, ptr %5, align 8, !tbaa !14
  %18 = getelementptr inbounds nuw i8, ptr %16, i64 %17
  call void @llvm.memcpy.p0.p0.i64(ptr align 8 %15, ptr align 1 %18, i64 2, i1 false)
  %19 = load i64, ptr %5, align 8, !tbaa !14
  %20 = add i64 %19, 2
  store i64 %20, ptr %5, align 8, !tbaa !14
  %21 = load ptr, ptr %3, align 8, !tbaa !16
  %22 = getelementptr inbounds nuw %struct.cdf_directory_t, ptr %21, i32 0, i32 2
  %23 = load ptr, ptr %4, align 8, !tbaa !9
  %24 = load i64, ptr %5, align 8, !tbaa !14
  %25 = getelementptr inbounds nuw i8, ptr %23, i64 %24
  call void @llvm.memcpy.p0.p0.i64(ptr align 2 %22, ptr align 1 %25, i64 1, i1 false)
  %26 = load i64, ptr %5, align 8, !tbaa !14
  %27 = add i64 %26, 1
  store i64 %27, ptr %5, align 8, !tbaa !14
  %28 = load ptr, ptr %3, align 8, !tbaa !16
  %29 = getelementptr inbounds nuw %struct.cdf_directory_t, ptr %28, i32 0, i32 3
  %30 = load ptr, ptr %4, align 8, !tbaa !9
  %31 = load i64, ptr %5, align 8, !tbaa !14
  %32 = getelementptr inbounds nuw i8, ptr %30, i64 %31
  call void @llvm.memcpy.p0.p0.i64(ptr align 1 %29, ptr align 1 %32, i64 1, i1 false)
  %33 = load i64, ptr %5, align 8, !tbaa !14
  %34 = add i64 %33, 1
  store i64 %34, ptr %5, align 8, !tbaa !14
  %35 = load ptr, ptr %3, align 8, !tbaa !16
  %36 = getelementptr inbounds nuw %struct.cdf_directory_t, ptr %35, i32 0, i32 4
  %37 = load ptr, ptr %4, align 8, !tbaa !9
  %38 = load i64, ptr %5, align 8, !tbaa !14
  %39 = getelementptr inbounds nuw i8, ptr %37, i64 %38
  call void @llvm.memcpy.p0.p0.i64(ptr align 4 %36, ptr align 1 %39, i64 4, i1 false)
  %40 = load i64, ptr %5, align 8, !tbaa !14
  %41 = add i64 %40, 4
  store i64 %41, ptr %5, align 8, !tbaa !14
  %42 = load ptr, ptr %3, align 8, !tbaa !16
  %43 = getelementptr inbounds nuw %struct.cdf_directory_t, ptr %42, i32 0, i32 5
  %44 = load ptr, ptr %4, align 8, !tbaa !9
  %45 = load i64, ptr %5, align 8, !tbaa !14
  %46 = getelementptr inbounds nuw i8, ptr %44, i64 %45
  call void @llvm.memcpy.p0.p0.i64(ptr align 8 %43, ptr align 1 %46, i64 4, i1 false)
  %47 = load i64, ptr %5, align 8, !tbaa !14
  %48 = add i64 %47, 4
  store i64 %48, ptr %5, align 8, !tbaa !14
  %49 = load ptr, ptr %3, align 8, !tbaa !16
  %50 = getelementptr inbounds nuw %struct.cdf_directory_t, ptr %49, i32 0, i32 6
  %51 = load ptr, ptr %4, align 8, !tbaa !9
  %52 = load i64, ptr %5, align 8, !tbaa !14
  %53 = getelementptr inbounds nuw i8, ptr %51, i64 %52
  call void @llvm.memcpy.p0.p0.i64(ptr align 4 %50, ptr align 1 %53, i64 4, i1 false)
  %54 = load i64, ptr %5, align 8, !tbaa !14
  %55 = add i64 %54, 4
  store i64 %55, ptr %5, align 8, !tbaa !14
  %56 = load ptr, ptr %3, align 8, !tbaa !16
  %57 = getelementptr inbounds nuw %struct.cdf_directory_t, ptr %56, i32 0, i32 7
  %58 = getelementptr inbounds [2 x i64], ptr %57, i64 0, i64 0
  %59 = load ptr, ptr %4, align 8, !tbaa !9
  %60 = load i64, ptr %5, align 8, !tbaa !14
  %61 = getelementptr inbounds nuw i8, ptr %59, i64 %60
  call void @llvm.memcpy.p0.p0.i64(ptr align 8 %58, ptr align 1 %61, i64 16, i1 false)
  %62 = load i64, ptr %5, align 8, !tbaa !14
  %63 = add i64 %62, 16
  store i64 %63, ptr %5, align 8, !tbaa !14
  %64 = load ptr, ptr %3, align 8, !tbaa !16
  %65 = getelementptr inbounds nuw %struct.cdf_directory_t, ptr %64, i32 0, i32 8
  %66 = load ptr, ptr %4, align 8, !tbaa !9
  %67 = load i64, ptr %5, align 8, !tbaa !14
  %68 = getelementptr inbounds nuw i8, ptr %66, i64 %67
  call void @llvm.memcpy.p0.p0.i64(ptr align 8 %65, ptr align 1 %68, i64 4, i1 false)
  %69 = load i64, ptr %5, align 8, !tbaa !14
  %70 = add i64 %69, 4
  store i64 %70, ptr %5, align 8, !tbaa !14
  %71 = load ptr, ptr %3, align 8, !tbaa !16
  %72 = getelementptr inbounds nuw %struct.cdf_directory_t, ptr %71, i32 0, i32 9
  %73 = load ptr, ptr %4, align 8, !tbaa !9
  %74 = load i64, ptr %5, align 8, !tbaa !14
  %75 = getelementptr inbounds nuw i8, ptr %73, i64 %74
  call void @llvm.memcpy.p0.p0.i64(ptr align 8 %72, ptr align 1 %75, i64 8, i1 false)
  %76 = load i64, ptr %5, align 8, !tbaa !14
  %77 = add i64 %76, 8
  store i64 %77, ptr %5, align 8, !tbaa !14
  %78 = load ptr, ptr %3, align 8, !tbaa !16
  %79 = getelementptr inbounds nuw %struct.cdf_directory_t, ptr %78, i32 0, i32 10
  %80 = load ptr, ptr %4, align 8, !tbaa !9
  %81 = load i64, ptr %5, align 8, !tbaa !14
  %82 = getelementptr inbounds nuw i8, ptr %80, i64 %81
  call void @llvm.memcpy.p0.p0.i64(ptr align 8 %79, ptr align 1 %82, i64 8, i1 false)
  %83 = load i64, ptr %5, align 8, !tbaa !14
  %84 = add i64 %83, 8
  store i64 %84, ptr %5, align 8, !tbaa !14
  %85 = load ptr, ptr %3, align 8, !tbaa !16
  %86 = getelementptr inbounds nuw %struct.cdf_directory_t, ptr %85, i32 0, i32 11
  %87 = load ptr, ptr %4, align 8, !tbaa !9
  %88 = load i64, ptr %5, align 8, !tbaa !14
  %89 = getelementptr inbounds nuw i8, ptr %87, i64 %88
  call void @llvm.memcpy.p0.p0.i64(ptr align 8 %86, ptr align 1 %89, i64 4, i1 false)
  %90 = load i64, ptr %5, align 8, !tbaa !14
  %91 = add i64 %90, 4
  store i64 %91, ptr %5, align 8, !tbaa !14
  %92 = load ptr, ptr %3, align 8, !tbaa !16
  %93 = getelementptr inbounds nuw %struct.cdf_directory_t, ptr %92, i32 0, i32 12
  %94 = load ptr, ptr %4, align 8, !tbaa !9
  %95 = load i64, ptr %5, align 8, !tbaa !14
  %96 = getelementptr inbounds nuw i8, ptr %94, i64 %95
  call void @llvm.memcpy.p0.p0.i64(ptr align 4 %93, ptr align 1 %96, i64 4, i1 false)
  %97 = load i64, ptr %5, align 8, !tbaa !14
  %98 = add i64 %97, 4
  store i64 %98, ptr %5, align 8, !tbaa !14
  %99 = load ptr, ptr %3, align 8, !tbaa !16
  %100 = getelementptr inbounds nuw %struct.cdf_directory_t, ptr %99, i32 0, i32 13
  %101 = load ptr, ptr %4, align 8, !tbaa !9
  %102 = load i64, ptr %5, align 8, !tbaa !14
  %103 = getelementptr inbounds nuw i8, ptr %101, i64 %102
  call void @llvm.memcpy.p0.p0.i64(ptr align 8 %100, ptr align 1 %103, i64 4, i1 false)
  %104 = load i64, ptr %5, align 8, !tbaa !14
  %105 = add i64 %104, 4
  store i64 %105, ptr %5, align 8, !tbaa !14
  call void @llvm.lifetime.end.p0(i64 8, ptr %5) #13
  ret void
}