; Function Attrs: mustprogress nofree norecurse nosync nounwind willreturn memory(argmem: readwrite) uwtable
define hidden void @cdf_unpack_dir(ptr noundef writeonly captures(none) initializes((0, 100), (104, 132)) %0, ptr noundef readonly captures(none) %1) local_unnamed_addr #6 {
  tail call void @llvm.memcpy.p0.p0.i64(ptr noundef nonnull align 8 dereferenceable(64) %0, ptr noundef nonnull align 1 dereferenceable(64) %1, i64 64, i1 false)
  %3 = getelementptr inbounds nuw i8, ptr %0, i64 64
  %4 = getelementptr inbounds nuw i8, ptr %1, i64 64
  %5 = load i16, ptr %4, align 1
  store i16 %5, ptr %3, align 8
  %6 = getelementptr inbounds nuw i8, ptr %0, i64 66
  %7 = getelementptr inbounds nuw i8, ptr %1, i64 66
  %8 = load i8, ptr %7, align 1
  store i8 %8, ptr %6, align 2
  %9 = getelementptr inbounds nuw i8, ptr %0, i64 67
  %10 = getelementptr inbounds nuw i8, ptr %1, i64 67
  %11 = load i8, ptr %10, align 1
  store i8 %11, ptr %9, align 1
  %12 = getelementptr inbounds nuw i8, ptr %0, i64 68
  %13 = getelementptr inbounds nuw i8, ptr %1, i64 68
  %14 = load i32, ptr %13, align 1
  store i32 %14, ptr %12, align 4
  %15 = getelementptr inbounds nuw i8, ptr %0, i64 72
  %16 = getelementptr inbounds nuw i8, ptr %1, i64 72
  %17 = load i32, ptr %16, align 1
  store i32 %17, ptr %15, align 8
  %18 = getelementptr inbounds nuw i8, ptr %0, i64 76
  %19 = getelementptr inbounds nuw i8, ptr %1, i64 76
  %20 = load i32, ptr %19, align 1
  store i32 %20, ptr %18, align 4
  %21 = getelementptr inbounds nuw i8, ptr %0, i64 80
  %22 = getelementptr inbounds nuw i8, ptr %1, i64 80
  tail call void @llvm.memcpy.p0.p0.i64(ptr noundef nonnull align 8 dereferenceable(16) %21, ptr noundef nonnull align 1 dereferenceable(16) %22, i64 16, i1 false)
  %23 = getelementptr inbounds nuw i8, ptr %0, i64 96
  %24 = getelementptr inbounds nuw i8, ptr %1, i64 96
  %25 = load i32, ptr %24, align 1
  store i32 %25, ptr %23, align 8
  %26 = getelementptr inbounds nuw i8, ptr %0, i64 104
  %27 = getelementptr inbounds nuw i8, ptr %1, i64 100
  %28 = load i64, ptr %27, align 1
  store i64 %28, ptr %26, align 8
  %29 = getelementptr inbounds nuw i8, ptr %0, i64 112
  %30 = getelementptr inbounds nuw i8, ptr %1, i64 108
  %31 = load i64, ptr %30, align 1
  store i64 %31, ptr %29, align 8
  %32 = getelementptr inbounds nuw i8, ptr %0, i64 120
  %33 = getelementptr inbounds nuw i8, ptr %1, i64 116
  %34 = load i32, ptr %33, align 1
  store i32 %34, ptr %32, align 8
  %35 = getelementptr inbounds nuw i8, ptr %0, i64 124
  %36 = getelementptr inbounds nuw i8, ptr %1, i64 120
  %37 = load i32, ptr %36, align 1
  store i32 %37, ptr %35, align 4
  %38 = getelementptr inbounds nuw i8, ptr %0, i64 128
  %39 = getelementptr inbounds nuw i8, ptr %1, i64 124
  %40 = load i32, ptr %39, align 1
  store i32 %40, ptr %38, align 8
  ret void
}